target datalayout = "e-m:e-p270:32:32-p271:32:32-p272:64:64-i64:64-i128:128-f80:128-n8:16:32:64-S128"
target triple = "x86_64-pc-linux-gnu"

%"class.std::chrono::time_point" = type { %"class.std::chrono::duration.2" }
%"class.std::chrono::duration.2" = type { i64 }
%"class.std::__cxx11::basic_string" = type { %"struct.std::__cxx11::basic_string<char>::_Alloc_hider", i64, %union.anon }
%"struct.std::__cxx11::basic_string<char>::_Alloc_hider" = type { ptr }
%union.anon = type { i64, [8 x i8] }
%"struct.google::logging::internal::LogMessageData" = type { i32, [30001 x i8], %"class.google::LogMessage::LogStream", i32, i32, { i64, i64 }, %union.anon.27, i64, i64, i64, ptr, ptr, i8, i8, %"class.std::thread::id" }
%"class.google::LogMessage::LogStream" = type { %"class.std::basic_ostream.base", %"class.google::base_logging::LogStreamBuf", i64, ptr, %"class.std::basic_ios" }
%"class.std::basic_ostream.base" = type { ptr }
%"class.google::base_logging::LogStreamBuf" = type { %"class.std::basic_streambuf" }
%"class.std::basic_streambuf" = type { ptr, ptr, ptr, ptr, ptr, ptr, ptr, %"class.std::locale" }
%"class.std::locale" = type { ptr }
%"class.std::basic_ios" = type { %"class.std::ios_base", ptr, i8, i8, ptr, ptr, ptr, ptr }
%"class.std::ios_base" = type { ptr, i64, i64, i32, i32, i32, ptr, %"struct.std::ios_base::_Words", [8 x %"struct.std::ios_base::_Words"], i32, ptr, %"class.std::locale" }
%"struct.std::ios_base::_Words" = type { ptr, i64 }
%union.anon.27 = type { ptr }
%"class.std::thread::id" = type { i64 }
%"class.google::LogMessage" = type { ptr, ptr, %"struct.google::LogMessageTime" }
%"struct.google::LogMessageTime" = type { %struct.tm, %"class.std::chrono::time_point", %"class.std::chrono::duration.28", %"class.std::chrono::duration.29" }
%struct.tm = type { i32, i32, i32, i32, i32, i32, i32, i32, i32, i64, ptr }
%"class.std::chrono::duration.28" = type { i64 }
%"class.std::chrono::duration.29" = type { i64 }

@.str.19 = private unnamed_addr constant [102 x i8] c"generated/home/dtcxzyw/WorkSpace/Projects/compilers/llvm-opt-benchmark/bench/glog/glog/src/logging.cc\00", align 1
@.str.20 = private unnamed_addr constant [20 x i8] c"Check %s failed: %s\00", align 1
@.str.21 = private unnamed_addr constant [91 x i8] c"data_->num_chars_to_log_ > 0 && data_->message_text_[data_->num_chars_to_log_ - 1] == '\\n'\00", align 1
@.str.22 = private unnamed_addr constant [1 x i8] zeroinitializer, align 1

; Function Attrs: mustprogress nounwind uwtable
define available_externally noundef i64 @_ZNKSt7__cxx1112basic_stringIcSt11char_traitsIcESaIcEE4sizeEv(ptr noundef nonnull align 8 dereferenceable(32) %0) #2 align 2 {
  %2 = alloca ptr, align 8
  store ptr %0, ptr %2, align 8, !tbaa !68
  %3 = load ptr, ptr %2, align 8
  %4 = getelementptr inbounds nuw %"class.std::__cxx11::basic_string", ptr %3, i32 0, i32 1
  %5 = load i64, ptr %4, align 8, !tbaa !341
  ret i64 %5
}

; Function Attrs: mustprogress uwtable
define available_externally noundef nonnull align 8 dereferenceable(32) ptr @_ZNSt7__cxx1112basic_stringIcSt11char_traitsIcESaIcEE6assignEPKcm(ptr noundef nonnull align 8 dereferenceable(32) %0, ptr noundef %1, i64 noundef %2) #0 align 2 {
  %4 = alloca ptr, align 8
  %5 = alloca ptr, align 8
  %6 = alloca i64, align 8
  store ptr %0, ptr %4, align 8, !tbaa !68
  store ptr %1, ptr %5, align 8, !tbaa !9
  store i64 %2, ptr %6, align 8, !tbaa !13
  %7 = load ptr, ptr %4, align 8
  %8 = call noundef i64 @_ZNKSt7__cxx1112basic_stringIcSt11char_traitsIcESaIcEE4sizeEv(ptr noundef nonnull align 8 dereferenceable(32) %7) #5
  %9 = load ptr, ptr %5, align 8, !tbaa !9
  %10 = load i64, ptr %6, align 8, !tbaa !13
  %11 = call noundef nonnull align 8 dereferenceable(32) ptr @_ZNSt7__cxx1112basic_stringIcSt11char_traitsIcESaIcEE10_M_replaceEmmPKcm(ptr noundef nonnull align 8 dereferenceable(32) %7, i64 noundef 0, i64 noundef %8, ptr noundef %9, i64 noundef %10)
  ret ptr %11
}

; Function Attrs: mustprogress uwtable
define void @_ZN6google10LogMessage19WriteToStringAndLogEv(ptr noundef nonnull align 8 dereferenceable(96) %0) #0 align 2 {
  %2 = alloca ptr, align 8
  %3 = alloca ptr, align 8
  %4 = alloca i64, align 8
  store ptr %0, ptr %2, align 8, !tbaa !128
  %5 = load ptr, ptr %2, align 8
  %6 = getelementptr inbounds nuw %"class.google::LogMessage", ptr %5, i32 0, i32 1
  %7 = load ptr, ptr %6, align 8, !tbaa !136
  %8 = getelementptr inbounds nuw %"struct.google::logging::internal::LogMessageData", ptr %7, i32 0, i32 6
  %9 = load ptr, ptr %8, align 8, !tbaa !77
  %10 = icmp ne ptr %9, null
  br i1 %10, label %11, label %65

11:                                               ; preds = %1
  br label %12

12:                                               ; preds = %37, %11
  br i1 false, label %13, label %38

13:                                               ; preds = %12
  br label %14

14:                                               ; preds = %13
  %15 = getelementptr inbounds nuw %"class.google::LogMessage", ptr %5, i32 0, i32 1
  %16 = load ptr, ptr %15, align 8, !tbaa !136
  %17 = getelementptr inbounds nuw %"struct.google::logging::internal::LogMessageData", ptr %16, i32 0, i32 8
  %18 = load i64, ptr %17, align 8, !tbaa !145
  %19 = icmp ugt i64 %18, 0
  br i1 %19, label %20, label %33

20:                                               ; preds = %14
  %21 = getelementptr inbounds nuw %"class.google::LogMessage", ptr %5, i32 0, i32 1
  %22 = load ptr, ptr %21, align 8, !tbaa !136
  %23 = getelementptr inbounds nuw %"struct.google::logging::internal::LogMessageData", ptr %22, i32 0, i32 1
  %24 = getelementptr inbounds nuw %"class.google::LogMessage", ptr %5, i32 0, i32 1
  %25 = load ptr, ptr %24, align 8, !tbaa !136
  %26 = getelementptr inbounds nuw %"struct.google::logging::internal::LogMessageData", ptr %25, i32 0, i32 8
  %27 = load i64, ptr %26, align 8, !tbaa !145
  %28 = sub i64 %27, 1
  %29 = getelementptr inbounds nuw [30001 x i8], ptr %23, i64 0, i64 %28
  %30 = load i8, ptr %29, align 1, !tbaa !77
  %31 = sext i8 %30 to i32
  %32 = icmp eq i32 %31, 10
  br i1 %32, label %36, label %33

33:                                               ; preds = %20, %14
  br label %34

34:                                               ; preds = %33
  call void (i32, ptr, i32, ptr, ...) @_ZN6google8RawLog__ENS_11LogSeverityEPKciS2_z(i32 noundef 3, ptr noundef @.str.19, i32 noundef 1925, ptr noundef @.str.20, ptr noundef @.str.21, ptr noundef @.str.22)
  br label %35

35:                                               ; preds = %34
  br label %36

36:                                               ; preds = %35, %20
  br label %37

37:                                               ; preds = %36
  br label %12, !llvm.loop !163

38:                                               ; preds = %12
  call void @llvm.lifetime.start.p0(i64 8, ptr %3) #5
  %39 = getelementptr inbounds nuw %"class.google::LogMessage", ptr %5, i32 0, i32 1
  %40 = load ptr, ptr %39, align 8, !tbaa !136
  %41 = getelementptr inbounds nuw %"struct.google::logging::internal::LogMessageData", ptr %40, i32 0, i32 1
  %42 = getelementptr inbounds [30001 x i8], ptr %41, i64 0, i64 0
  %43 = getelementptr inbounds nuw %"class.google::LogMessage", ptr %5, i32 0, i32 1
  %44 = load ptr, ptr %43, align 8, !tbaa !136
  %45 = getelementptr inbounds nuw %"struct.google::logging::internal::LogMessageData", ptr %44, i32 0, i32 7
  %46 = load i64, ptr %45, align 8, !tbaa !150
  %47 = getelementptr inbounds nuw i8, ptr %42, i64 %46
  store ptr %47, ptr %3, align 8, !tbaa !9
  call void @llvm.lifetime.start.p0(i64 8, ptr %4) #5
  %48 = getelementptr inbounds nuw %"class.google::LogMessage", ptr %5, i32 0, i32 1
  %49 = load ptr, ptr %48, align 8, !tbaa !136
  %50 = getelementptr inbounds nuw %"struct.google::logging::internal::LogMessageData", ptr %49, i32 0, i32 8
  %51 = load i64, ptr %50, align 8, !tbaa !145
  %52 = getelementptr inbounds nuw %"class.google::LogMessage", ptr %5, i32 0, i32 1
  %53 = load ptr, ptr %52, align 8, !tbaa !136
  %54 = getelementptr inbounds nuw %"struct.google::logging::internal::LogMessageData", ptr %53, i32 0, i32 7
  %55 = load i64, ptr %54, align 8, !tbaa !150
  %56 = sub i64 %51, %55
  %57 = sub i64 %56, 1
  store i64 %57, ptr %4, align 8, !tbaa !13
  %58 = getelementptr inbounds nuw %"class.google::LogMessage", ptr %5, i32 0, i32 1
  %59 = load ptr, ptr %58, align 8, !tbaa !136
  %60 = getelementptr inbounds nuw %"struct.google::logging::internal::LogMessageData", ptr %59, i32 0, i32 6
  %61 = load ptr, ptr %60, align 8, !tbaa !77
  %62 = load ptr, ptr %3, align 8, !tbaa !9
  %63 = load i64, ptr %4, align 8, !tbaa !13
  %64 = call noundef nonnull align 8 dereferenceable(32) ptr @_ZNSt7__cxx1112basic_stringIcSt11char_traitsIcESaIcEE6assignEPKcm(ptr noundef nonnull align 8 dereferenceable(32) %61, ptr noundef %62, i64 noundef %63)
  call void @llvm.lifetime.end.p0(i64 8, ptr %4) #5
  call void @llvm.lifetime.end.p0(i64 8, ptr %3) #5
  br label %65

65:                                               ; preds = %38, %1
  call void @_ZN6google10LogMessage9SendToLogEv(ptr noundef nonnull align 8 dereferenceable(96) %5)
  ret void
}