; Function Attrs: mustprogress uwtable
define void @_ZN6google10LogMessage19WriteToStringAndLogEv(ptr noundef nonnull align 8 dereferenceable(96) %0) #0 align 2 {
  %2 = getelementptr inbounds nuw i8, ptr %0, i64 8
  %3 = load ptr, ptr %2, align 8, !tbaa !91
  %4 = getelementptr inbounds nuw i8, ptr %3, i64 30384
  %5 = load ptr, ptr %4, align 8, !tbaa !51
  %.not = icmp eq ptr %5, null
  br i1 %.not, label %18, label %6

6:                                                ; preds = %1
  %7 = getelementptr inbounds nuw i8, ptr %3, i64 4
  %8 = getelementptr inbounds nuw i8, ptr %3, i64 30392
  %9 = load i64, ptr %8, align 8, !tbaa !125
  %10 = getelementptr inbounds nuw i8, ptr %7, i64 %9
  %11 = getelementptr inbounds nuw i8, ptr %3, i64 30400
  %12 = load i64, ptr %11, align 8, !tbaa !128
  %13 = xor i64 %9, -1
  %14 = add i64 %12, %13
  %15 = getelementptr inbounds nuw i8, ptr %5, i64 8
  %16 = load i64, ptr %15, align 8, !tbaa !48
  %17 = tail call noundef nonnull align 8 dereferenceable(32) ptr @_ZNSt7__cxx1112basic_stringIcSt11char_traitsIcESaIcEE10_M_replaceEmmPKcm(ptr noundef nonnull align 8 dereferenceable(32) %5, i64 noundef 0, i64 noundef %16, ptr noundef nonnull %10, i64 noundef %14)
  br label %18

18:                                               ; preds = %6, %1
  tail call void @_ZN6google10LogMessage9SendToLogEv(ptr noundef nonnull align 8 dereferenceable(96) %0)
  ret void
}